target datalayout = "e-m:e-p270:32:32-p271:32:32-p272:64:64-i64:64-i128:128-f80:128-n8:16:32:64-S128"
target triple = "x86_64-pc-linux-gnu"

@bio_err = external global ptr, align 8
@.str.319 = private unnamed_addr constant [34 x i8] c"Error allocating CMS_contentinfo\0A\00", align 1
@.str.320 = private unnamed_addr constant [25 x i8] c"Bad input format for %s\0A\00", align 1
@.str.321 = private unnamed_addr constant [31 x i8] c"Error reading %s Content Info\0A\00", align 1

; Function Attrs: nounwind uwtable
define internal ptr @load_content_info(i32 noundef %0, ptr noundef %1, i32 noundef %2, ptr noundef %3, ptr noundef %4) #0 {
  %6 = alloca ptr, align 8
  %7 = alloca i32, align 4
  %8 = alloca ptr, align 8
  %9 = alloca i32, align 4
  %10 = alloca ptr, align 8
  %11 = alloca ptr, align 8
  %12 = alloca ptr, align 8
  %13 = alloca ptr, align 8
  %14 = alloca i32, align 4
  store i32 %0, ptr %7, align 4, !tbaa !4
  store ptr %1, ptr %8, align 8, !tbaa !15
  store i32 %2, ptr %9, align 4, !tbaa !4
  store ptr %3, ptr %10, align 8, !tbaa !71
  store ptr %4, ptr %11, align 8, !tbaa !39
  call void @llvm.lifetime.start.p0(i64 8, ptr %12) #4
  call void @llvm.lifetime.start.p0(i64 8, ptr %13) #4
  %15 = call ptr @app_get0_libctx()
  %16 = call ptr @app_get0_propq()
  %17 = call ptr @CMS_ContentInfo_new_ex(ptr noundef %15, ptr noundef %16)
  store ptr %17, ptr %12, align 8, !tbaa !17
  %18 = load ptr, ptr %12, align 8, !tbaa !17
  %19 = icmp eq ptr %18, null
  br i1 %19, label %20, label %23

20:                                               ; preds = %5
  %21 = load ptr, ptr @bio_err, align 8, !tbaa !15
  %22 = call i32 (ptr, ptr, ...) @BIO_printf(ptr noundef %21, ptr noundef @.str.319)
  store ptr null, ptr %6, align 8
  store i32 1, ptr %14, align 4
  br label %51

23:                                               ; preds = %5
  %24 = load i32, ptr %7, align 4, !tbaa !4
  switch i32 %24, label %36 [
    i32 32775, label %25
    i32 32773, label %30
    i32 4, label %33
  ]

25:                                               ; preds = %23
  %26 = load ptr, ptr %8, align 8, !tbaa !15
  %27 = load i32, ptr %9, align 4, !tbaa !4
  %28 = load ptr, ptr %10, align 8, !tbaa !71
  %29 = call ptr @SMIME_read_CMS_ex(ptr noundef %26, i32 noundef %27, ptr noundef %28, ptr noundef %12)
  store ptr %29, ptr %13, align 8, !tbaa !17
  br label %40

30:                                               ; preds = %23
  %31 = load ptr, ptr %8, align 8, !tbaa !15
  %32 = call ptr @PEM_read_bio_CMS(ptr noundef %31, ptr noundef %12, ptr noundef null, ptr noundef null)
  store ptr %32, ptr %13, align 8, !tbaa !17
  br label %40

33:                                               ; preds = %23
  %34 = load ptr, ptr %8, align 8, !tbaa !15
  %35 = call ptr @d2i_CMS_bio(ptr noundef %34, ptr noundef %12)
  store ptr %35, ptr %13, align 8, !tbaa !17
  br label %40

36:                                               ; preds = %23
  %37 = load ptr, ptr @bio_err, align 8, !tbaa !15
  %38 = load ptr, ptr %11, align 8, !tbaa !39
  %39 = call i32 (ptr, ptr, ...) @BIO_printf(ptr noundef %37, ptr noundef @.str.320, ptr noundef %38)
  br label %49

40:                                               ; preds = %33, %30, %25
  %41 = load ptr, ptr %13, align 8, !tbaa !17
  %42 = icmp eq ptr %41, null
  br i1 %42, label %43, label %47

43:                                               ; preds = %40
  %44 = load ptr, ptr @bio_err, align 8, !tbaa !15
  %45 = load ptr, ptr %11, align 8, !tbaa !39
  %46 = call i32 (ptr, ptr, ...) @BIO_printf(ptr noundef %44, ptr noundef @.str.321, ptr noundef %45)
  br label %49

47:                                               ; preds = %40
  %48 = load ptr, ptr %12, align 8, !tbaa !17
  store ptr %48, ptr %6, align 8
  store i32 1, ptr %14, align 4
  br label %51

49:                                               ; preds = %43, %36
  %50 = load ptr, ptr %12, align 8, !tbaa !17
  call void @CMS_ContentInfo_free(ptr noundef %50)
  store ptr null, ptr %6, align 8
  store i32 1, ptr %14, align 4
  br label %51

51:                                               ; preds = %49, %47, %20
  call void @llvm.lifetime.end.p0(i64 8, ptr %13) #4
  call void @llvm.lifetime.end.p0(i64 8, ptr %12) #4
  %52 = load ptr, ptr %6, align 8
  ret ptr %52
}