; Function Attrs: nounwind uwtable
define internal fastcc ptr @load_content_info(i32 noundef %0, ptr noundef %1, i32 noundef %2, ptr noundef %3, ptr noundef %4) unnamed_addr #0 {
  %6 = alloca ptr, align 8
  call void @llvm.lifetime.start.p0(i64 8, ptr nonnull %6) #3
  %7 = tail call ptr @app_get0_libctx() #3
  %8 = tail call ptr @app_get0_propq() #3
  %9 = tail call ptr @CMS_ContentInfo_new_ex(ptr noundef %7, ptr noundef %8) #3
  store ptr %9, ptr %6, align 8, !tbaa !35
  %10 = icmp eq ptr %9, null
  br i1 %10, label %11, label %14

11:                                               ; preds = %5
  %12 = load ptr, ptr @bio_err, align 8, !tbaa !4
  %13 = tail call i32 (ptr, ptr, ...) @BIO_printf(ptr noundef %12, ptr noundef nonnull @.str.319) #3
  br label %33

14:                                               ; preds = %5
  switch i32 %0, label %21 [
    i32 32775, label %15
    i32 32773, label %17
    i32 4, label %19
  ]

15:                                               ; preds = %14
  %16 = call ptr @SMIME_read_CMS_ex(ptr noundef %1, i32 noundef %2, ptr noundef %3, ptr noundef nonnull %6) #3
  br label %24

17:                                               ; preds = %14
  %18 = call ptr @PEM_read_bio_CMS(ptr noundef %1, ptr noundef nonnull %6, ptr noundef null, ptr noundef null) #3
  br label %24

19:                                               ; preds = %14
  %20 = call ptr @d2i_CMS_bio(ptr noundef %1, ptr noundef nonnull %6) #3
  br label %24

21:                                               ; preds = %14
  %22 = load ptr, ptr @bio_err, align 8, !tbaa !4
  %23 = tail call i32 (ptr, ptr, ...) @BIO_printf(ptr noundef %22, ptr noundef nonnull @.str.320, ptr noundef %4) #3
  br label %31

24:                                               ; preds = %19, %17, %15
  %.0 = phi ptr [ %20, %19 ], [ %18, %17 ], [ %16, %15 ]
  %25 = icmp eq ptr %.0, null
  br i1 %25, label %26, label %29

26:                                               ; preds = %24
  %27 = load ptr, ptr @bio_err, align 8, !tbaa !4
  %28 = call i32 (ptr, ptr, ...) @BIO_printf(ptr noundef %27, ptr noundef nonnull @.str.321, ptr noundef %4) #3
  %.pre = load ptr, ptr %6, align 8, !tbaa !35
  br label %31

29:                                               ; preds = %24
  %30 = load ptr, ptr %6, align 8, !tbaa !35
  br label %33

31:                                               ; preds = %26, %21
  %32 = phi ptr [ %.pre, %26 ], [ %9, %21 ]
  call void @CMS_ContentInfo_free(ptr noundef %32) #3
  br label %33

33:                                               ; preds = %31, %29, %11
  %.09 = phi ptr [ null, %11 ], [ null, %31 ], [ %30, %29 ]
  call void @llvm.lifetime.end.p0(i64 8, ptr nonnull %6) #3
  ret ptr %.09
}